target datalayout = "e-m:e-p270:32:32-p271:32:32-p272:64:64-i64:64-i128:128-f80:128-n8:16:32:64-S128"
target triple = "x86_64-pc-linux-gnu"

%"class.boost::log::v2_mt_posix::sinks::syslog_backend" = type { ptr }
%"struct.boost::log::v2_mt_posix::sinks::syslog_backend::implementation" = type <{ ptr, %"class.boost::log::v2_mt_posix::aux::light_function", i32, [4 x i8] }>
%"class.boost::log::v2_mt_posix::aux::light_function" = type { ptr }
%"struct.boost::log::v2_mt_posix::aux::light_function<boost::log::v2_mt_posix::sinks::syslog::level (const boost::log::v2_mt_posix::record_view &)>::impl_base" = type { ptr, ptr, ptr }

; Function Attrs: mustprogress uwtable
define linkonce_odr hidden noundef i32 @_ZNK5boost3log11v2_mt_posix3aux14light_functionIFNS1_5sinks6syslog5levelERKNS1_11record_viewEEEclES9_(ptr noundef nonnull align 8 dereferenceable(8) %0, ptr noundef nonnull align 8 dereferenceable(8) %1) #5 comdat align 2 {
  %3 = alloca ptr, align 8
  %4 = alloca ptr, align 8
  store ptr %0, ptr %3, align 8, !tbaa !7
  store ptr %1, ptr %4, align 8, !tbaa !7
  %5 = load ptr, ptr %3, align 8
  %6 = getelementptr inbounds nuw %"class.boost::log::v2_mt_posix::aux::light_function", ptr %5, i32 0, i32 0
  %7 = load ptr, ptr %6, align 8, !tbaa !37
  %8 = getelementptr inbounds nuw %"struct.boost::log::v2_mt_posix::aux::light_function<boost::log::v2_mt_posix::sinks::syslog::level (const boost::log::v2_mt_posix::record_view &)>::impl_base", ptr %7, i32 0, i32 0
  %9 = load ptr, ptr %8, align 8, !tbaa !39
  %10 = getelementptr inbounds nuw %"class.boost::log::v2_mt_posix::aux::light_function", ptr %5, i32 0, i32 0
  %11 = load ptr, ptr %10, align 8, !tbaa !37
  %12 = load ptr, ptr %4, align 8, !tbaa !7
  %13 = call noundef i32 %9(ptr noundef %11, ptr noundef nonnull align 8 dereferenceable(8) %12)
  ret i32 %13
}

; Function Attrs: mustprogress nounwind uwtable
define linkonce_odr hidden noundef zeroext i1 @_ZNK5boost3log11v2_mt_posix3aux14light_functionIFNS1_5sinks6syslog5levelERKNS1_11record_viewEEE5emptyEv(ptr noundef nonnull align 8 dereferenceable(8) %0) #2 comdat align 2 {
  %2 = alloca ptr, align 8
  store ptr %0, ptr %2, align 8, !tbaa !7
  %3 = load ptr, ptr %2, align 8
  %4 = getelementptr inbounds nuw %"class.boost::log::v2_mt_posix::aux::light_function", ptr %3, i32 0, i32 0
  %5 = load ptr, ptr %4, align 8, !tbaa !37
  %6 = icmp eq ptr %5, null
  ret i1 %6
}

; Function Attrs: mustprogress uwtable
define void @_ZN5boost3log11v2_mt_posix5sinks14syslog_backend7consumeERKNS1_11record_viewERKNSt7__cxx1112basic_stringIcSt11char_traitsIcESaIcEEE(ptr noundef nonnull align 8 dereferenceable(8) %0, ptr noundef nonnull align 8 dereferenceable(8) %1, ptr noundef nonnull align 8 dereferenceable(32) %2) #5 align 2 {
  %4 = alloca ptr, align 8
  %5 = alloca ptr, align 8
  %6 = alloca ptr, align 8
  store ptr %0, ptr %4, align 8, !tbaa !7
  store ptr %1, ptr %5, align 8, !tbaa !7
  store ptr %2, ptr %6, align 8, !tbaa !7
  %7 = load ptr, ptr %4, align 8
  %8 = getelementptr inbounds nuw %"class.boost::log::v2_mt_posix::sinks::syslog_backend", ptr %7, i32 0, i32 0
  %9 = load ptr, ptr %8, align 8, !tbaa !35
  %10 = getelementptr inbounds nuw %"class.boost::log::v2_mt_posix::sinks::syslog_backend", ptr %7, i32 0, i32 0
  %11 = load ptr, ptr %10, align 8, !tbaa !35
  %12 = getelementptr inbounds nuw %"struct.boost::log::v2_mt_posix::sinks::syslog_backend::implementation", ptr %11, i32 0, i32 1
  %13 = call noundef zeroext i1 @_ZNK5boost3log11v2_mt_posix3aux14light_functionIFNS1_5sinks6syslog5levelERKNS1_11record_viewEEE5emptyEv(ptr noundef nonnull align 8 dereferenceable(8) %12) #16
  br i1 %13, label %14, label %15

14:                                               ; preds = %3
  br label %21

15:                                               ; preds = %3
  %16 = getelementptr inbounds nuw %"class.boost::log::v2_mt_posix::sinks::syslog_backend", ptr %7, i32 0, i32 0
  %17 = load ptr, ptr %16, align 8, !tbaa !35
  %18 = getelementptr inbounds nuw %"struct.boost::log::v2_mt_posix::sinks::syslog_backend::implementation", ptr %17, i32 0, i32 1
  %19 = load ptr, ptr %5, align 8, !tbaa !7
  %20 = call noundef i32 @_ZNK5boost3log11v2_mt_posix3aux14light_functionIFNS1_5sinks6syslog5levelERKNS1_11record_viewEEEclES9_(ptr noundef nonnull align 8 dereferenceable(8) %18, ptr noundef nonnull align 8 dereferenceable(8) %19)
  br label %21

21:                                               ; preds = %15, %14
  %22 = phi i32 [ 6, %14 ], [ %20, %15 ]
  %23 = load ptr, ptr %6, align 8, !tbaa !7
  %24 = load ptr, ptr %9, align 8, !tbaa !14
  %25 = getelementptr inbounds ptr, ptr %24, i64 2
  %26 = load ptr, ptr %25, align 8
  call void %26(ptr noundef nonnull align 8 dereferenceable(20) %9, i32 noundef %22, ptr noundef nonnull align 8 dereferenceable(32) %23)
  ret void
}