; Function Attrs: mustprogress uwtable
define void @_ZN5boost3log11v2_mt_posix5sinks14syslog_backend7consumeERKNS1_11record_viewERKNSt7__cxx1112basic_stringIcSt11char_traitsIcESaIcEEE(ptr nocapture noundef nonnull readonly align 8 dereferenceable(8) %0, ptr noundef nonnull align 8 dereferenceable(8) %1, ptr noundef nonnull align 8 dereferenceable(32) %2) local_unnamed_addr #4 align 2 {
  %4 = load ptr, ptr %0, align 8, !tbaa !48
  %5 = getelementptr inbounds nuw i8, ptr %4, i64 8
  %6 = load ptr, ptr %5, align 8, !tbaa !33
  %7 = icmp eq ptr %6, null
  br i1 %7, label %11, label %8

8:                                                ; preds = %3
  %9 = load ptr, ptr %6, align 8, !tbaa !54
  %10 = tail call noundef i32 %9(ptr noundef nonnull %6, ptr noundef nonnull align 8 dereferenceable(8) %1)
  br label %11

11:                                               ; preds = %3, %8
  %12 = phi i32 [ %10, %8 ], [ 6, %3 ]
  %13 = load ptr, ptr %4, align 8, !tbaa !37
  %14 = getelementptr inbounds i8, ptr %13, i64 16
  %15 = load ptr, ptr %14, align 8
  tail call void %15(ptr noundef nonnull align 8 dereferenceable(20) %4, i32 noundef %12, ptr noundef nonnull align 8 dereferenceable(32) %2)
  ret void
}